
user/_schedulertest:     file format elf64-littleriscv


Disassembly of section .text:

0000000000000000 <main>:


#define NFORK 10  // Total number of processes to create
#define IO 5      // Number of I/O-bound processes

int main() {
   0:	7139                	addi	sp,sp,-64
   2:	fc06                	sd	ra,56(sp)
   4:	f822                	sd	s0,48(sp)
   6:	f426                	sd	s1,40(sp)
   8:	f04a                	sd	s2,32(sp)
   a:	ec4e                	sd	s3,24(sp)
   c:	0080                	addi	s0,sp,64
  int n, pid;
  int wtime, rtime;
  int twtime = 0, trtime = 0; // Total wait time and runtime for all processes

  // Loop to create NFORK processes
  for (n = 0; n < NFORK; n++) {
   e:	4481                	li	s1,0
  10:	4929                	li	s2,10
    // Assign a large number of tickets to the 8th process to give it a higher chance
    //if (n == 8)
      //settickets(higher); // Process 8 gets higher tickets
    //else
     settickets(1);   // All other processes get 1 ticket each
  12:	4505                	li	a0,1
  14:	00000097          	auipc	ra,0x0
  18:	3fc080e7          	jalr	1020(ra) # 410 <settickets>

    // Fork a new process
    pid = fork();
  1c:	00000097          	auipc	ra,0x0
  20:	32c080e7          	jalr	812(ra) # 348 <fork>
    if (pid < 0)
  24:	00054963          	bltz	a0,36 <main+0x36>
      break; // Break if fork fails

    if (pid == 0) { // Child process
  28:	cd0d                	beqz	a0,62 <main+0x62>
  for (n = 0; n < NFORK; n++) {
  2a:	2485                	addiw	s1,s1,1
  2c:	ff2493e3          	bne	s1,s2,12 <main+0x12>
  30:	4901                	li	s2,0
  32:	4981                	li	s3,0
  34:	a0bd                	j	a2 <main+0xa2>

    }
  }

  // Wait for all child processes to finish
  for (; n > 0; n--) {
  36:	fe904de3          	bgtz	s1,30 <main+0x30>
  3a:	4901                	li	s2,0
  3c:	4981                	li	s3,0
      twtime += wtime; // Add wait time to total wait time
    }
  }
 //printlog();
  // Print the average runtime and wait time for all processes
  printf("Average runtime: %d, Average wait time: %d\n", trtime / NFORK, twtime / NFORK);
  3e:	45a9                	li	a1,10
  40:	02b9c63b          	divw	a2,s3,a1
  44:	02b945bb          	divw	a1,s2,a1
  48:	00001517          	auipc	a0,0x1
  4c:	87050513          	addi	a0,a0,-1936 # 8b8 <malloc+0x118>
  50:	00000097          	auipc	ra,0x0
  54:	698080e7          	jalr	1688(ra) # 6e8 <printf>

  //printlog();

  exit(0); // Parent process exits
  58:	4501                	li	a0,0
  5a:	00000097          	auipc	ra,0x0
  5e:	2f6080e7          	jalr	758(ra) # 350 <exit>
      if (n < IO) {
  62:	4711                	li	a4,4
  64:	3b9ad7b7          	lui	a5,0x3b9ad
  68:	a0078793          	addi	a5,a5,-1536 # 3b9aca00 <base+0x3b9ab9f0>
  6c:	02975263          	bge	a4,s1,90 <main+0x90>
        for (uint64 i = 0; i < 1000000000; i++) {} 
  70:	17fd                	addi	a5,a5,-1
  72:	fffd                	bnez	a5,70 <main+0x70>
      printf("Process %d finished\n", n); // Print when process finishes
  74:	85a6                	mv	a1,s1
  76:	00001517          	auipc	a0,0x1
  7a:	82a50513          	addi	a0,a0,-2006 # 8a0 <malloc+0x100>
  7e:	00000097          	auipc	ra,0x0
  82:	66a080e7          	jalr	1642(ra) # 6e8 <printf>
      exit(0); // Child process exits after finishing
  86:	4501                	li	a0,0
  88:	00000097          	auipc	ra,0x0
  8c:	2c8080e7          	jalr	712(ra) # 350 <exit>
        sleep(200); // Simulate I/O-bound process
  90:	0c800513          	li	a0,200
  94:	00000097          	auipc	ra,0x0
  98:	34c080e7          	jalr	844(ra) # 3e0 <sleep>
  9c:	bfe1                	j	74 <main+0x74>
  for (; n > 0; n--) {
  9e:	34fd                	addiw	s1,s1,-1
  a0:	dcd9                	beqz	s1,3e <main+0x3e>
    if (waitx(0, &wtime, &rtime) >= 0) { // Collect wait time and runtime for each process
  a2:	fc840613          	addi	a2,s0,-56
  a6:	fcc40593          	addi	a1,s0,-52
  aa:	4501                	li	a0,0
  ac:	00000097          	auipc	ra,0x0
  b0:	344080e7          	jalr	836(ra) # 3f0 <waitx>
  b4:	fe0545e3          	bltz	a0,9e <main+0x9e>
      trtime += rtime; // Add runtime to total runtime
  b8:	fc842783          	lw	a5,-56(s0)
  bc:	0127893b          	addw	s2,a5,s2
      twtime += wtime; // Add wait time to total wait time
  c0:	fcc42783          	lw	a5,-52(s0)
  c4:	013789bb          	addw	s3,a5,s3
  c8:	bfd9                	j	9e <main+0x9e>

00000000000000ca <_main>:
//
// wrapper so that it's OK if main() does not call exit().
//
void
_main()
{
  ca:	1141                	addi	sp,sp,-16
  cc:	e406                	sd	ra,8(sp)
  ce:	e022                	sd	s0,0(sp)
  d0:	0800                	addi	s0,sp,16
  extern int main();
  main();
  d2:	00000097          	auipc	ra,0x0
  d6:	f2e080e7          	jalr	-210(ra) # 0 <main>
  exit(0);
  da:	4501                	li	a0,0
  dc:	00000097          	auipc	ra,0x0
  e0:	274080e7          	jalr	628(ra) # 350 <exit>

00000000000000e4 <strcpy>:
}

char*
strcpy(char *s, const char *t)
{
  e4:	1141                	addi	sp,sp,-16
  e6:	e422                	sd	s0,8(sp)
  e8:	0800                	addi	s0,sp,16
  char *os;

  os = s;
  while((*s++ = *t++) != 0)
  ea:	87aa                	mv	a5,a0
  ec:	0585                	addi	a1,a1,1
  ee:	0785                	addi	a5,a5,1
  f0:	fff5c703          	lbu	a4,-1(a1)
  f4:	fee78fa3          	sb	a4,-1(a5)
  f8:	fb75                	bnez	a4,ec <strcpy+0x8>
    ;
  return os;
}
  fa:	6422                	ld	s0,8(sp)
  fc:	0141                	addi	sp,sp,16
  fe:	8082                	ret

0000000000000100 <strcmp>:

int
strcmp(const char *p, const char *q)
{
 100:	1141                	addi	sp,sp,-16
 102:	e422                	sd	s0,8(sp)
 104:	0800                	addi	s0,sp,16
  while(*p && *p == *q)
 106:	00054783          	lbu	a5,0(a0)
 10a:	cb91                	beqz	a5,11e <strcmp+0x1e>
 10c:	0005c703          	lbu	a4,0(a1)
 110:	00f71763          	bne	a4,a5,11e <strcmp+0x1e>
    p++, q++;
 114:	0505                	addi	a0,a0,1
 116:	0585                	addi	a1,a1,1
  while(*p && *p == *q)
 118:	00054783          	lbu	a5,0(a0)
 11c:	fbe5                	bnez	a5,10c <strcmp+0xc>
  return (uchar)*p - (uchar)*q;
 11e:	0005c503          	lbu	a0,0(a1)
}
 122:	40a7853b          	subw	a0,a5,a0
 126:	6422                	ld	s0,8(sp)
 128:	0141                	addi	sp,sp,16
 12a:	8082                	ret

000000000000012c <strlen>:

uint
strlen(const char *s)
{
 12c:	1141                	addi	sp,sp,-16
 12e:	e422                	sd	s0,8(sp)
 130:	0800                	addi	s0,sp,16
  int n;

  for(n = 0; s[n]; n++)
 132:	00054783          	lbu	a5,0(a0)
 136:	cf91                	beqz	a5,152 <strlen+0x26>
 138:	0505                	addi	a0,a0,1
 13a:	87aa                	mv	a5,a0
 13c:	86be                	mv	a3,a5
 13e:	0785                	addi	a5,a5,1
 140:	fff7c703          	lbu	a4,-1(a5)
 144:	ff65                	bnez	a4,13c <strlen+0x10>
 146:	40a6853b          	subw	a0,a3,a0
 14a:	2505                	addiw	a0,a0,1
    ;
  return n;
}
 14c:	6422                	ld	s0,8(sp)
 14e:	0141                	addi	sp,sp,16
 150:	8082                	ret
  for(n = 0; s[n]; n++)
 152:	4501                	li	a0,0
 154:	bfe5                	j	14c <strlen+0x20>

0000000000000156 <memset>:

void*
memset(void *dst, int c, uint n)
{
 156:	1141                	addi	sp,sp,-16
 158:	e422                	sd	s0,8(sp)
 15a:	0800                	addi	s0,sp,16
  char *cdst = (char *) dst;
  int i;
  for(i = 0; i < n; i++){
 15c:	ca19                	beqz	a2,172 <memset+0x1c>
 15e:	87aa                	mv	a5,a0
 160:	1602                	slli	a2,a2,0x20
 162:	9201                	srli	a2,a2,0x20
 164:	00a60733          	add	a4,a2,a0
    cdst[i] = c;
 168:	00b78023          	sb	a1,0(a5)
  for(i = 0; i < n; i++){
 16c:	0785                	addi	a5,a5,1
 16e:	fee79de3          	bne	a5,a4,168 <memset+0x12>
  }
  return dst;
}
 172:	6422                	ld	s0,8(sp)
 174:	0141                	addi	sp,sp,16
 176:	8082                	ret

0000000000000178 <strchr>:

char*
strchr(const char *s, char c)
{
 178:	1141                	addi	sp,sp,-16
 17a:	e422                	sd	s0,8(sp)
 17c:	0800                	addi	s0,sp,16
  for(; *s; s++)
 17e:	00054783          	lbu	a5,0(a0)
 182:	cb99                	beqz	a5,198 <strchr+0x20>
    if(*s == c)
 184:	00f58763          	beq	a1,a5,192 <strchr+0x1a>
  for(; *s; s++)
 188:	0505                	addi	a0,a0,1
 18a:	00054783          	lbu	a5,0(a0)
 18e:	fbfd                	bnez	a5,184 <strchr+0xc>
      return (char*)s;
  return 0;
 190:	4501                	li	a0,0
}
 192:	6422                	ld	s0,8(sp)
 194:	0141                	addi	sp,sp,16
 196:	8082                	ret
  return 0;
 198:	4501                	li	a0,0
 19a:	bfe5                	j	192 <strchr+0x1a>

000000000000019c <gets>:

char*
gets(char *buf, int max)
{
 19c:	711d                	addi	sp,sp,-96
 19e:	ec86                	sd	ra,88(sp)
 1a0:	e8a2                	sd	s0,80(sp)
 1a2:	e4a6                	sd	s1,72(sp)
 1a4:	e0ca                	sd	s2,64(sp)
 1a6:	fc4e                	sd	s3,56(sp)
 1a8:	f852                	sd	s4,48(sp)
 1aa:	f456                	sd	s5,40(sp)
 1ac:	f05a                	sd	s6,32(sp)
 1ae:	ec5e                	sd	s7,24(sp)
 1b0:	1080                	addi	s0,sp,96
 1b2:	8baa                	mv	s7,a0
 1b4:	8a2e                	mv	s4,a1
  int i, cc;
  char c;

  for(i=0; i+1 < max; ){
 1b6:	892a                	mv	s2,a0
 1b8:	4481                	li	s1,0
    cc = read(0, &c, 1);
    if(cc < 1)
      break;
    buf[i++] = c;
    if(c == '\n' || c == '\r')
 1ba:	4aa9                	li	s5,10
 1bc:	4b35                	li	s6,13
  for(i=0; i+1 < max; ){
 1be:	89a6                	mv	s3,s1
 1c0:	2485                	addiw	s1,s1,1
 1c2:	0344d863          	bge	s1,s4,1f2 <gets+0x56>
    cc = read(0, &c, 1);
 1c6:	4605                	li	a2,1
 1c8:	faf40593          	addi	a1,s0,-81
 1cc:	4501                	li	a0,0
 1ce:	00000097          	auipc	ra,0x0
 1d2:	19a080e7          	jalr	410(ra) # 368 <read>
    if(cc < 1)
 1d6:	00a05e63          	blez	a0,1f2 <gets+0x56>
    buf[i++] = c;
 1da:	faf44783          	lbu	a5,-81(s0)
 1de:	00f90023          	sb	a5,0(s2)
    if(c == '\n' || c == '\r')
 1e2:	01578763          	beq	a5,s5,1f0 <gets+0x54>
 1e6:	0905                	addi	s2,s2,1
 1e8:	fd679be3          	bne	a5,s6,1be <gets+0x22>
    buf[i++] = c;
 1ec:	89a6                	mv	s3,s1
 1ee:	a011                	j	1f2 <gets+0x56>
 1f0:	89a6                	mv	s3,s1
      break;
  }
  buf[i] = '\0';
 1f2:	99de                	add	s3,s3,s7
 1f4:	00098023          	sb	zero,0(s3)
  return buf;
}
 1f8:	855e                	mv	a0,s7
 1fa:	60e6                	ld	ra,88(sp)
 1fc:	6446                	ld	s0,80(sp)
 1fe:	64a6                	ld	s1,72(sp)
 200:	6906                	ld	s2,64(sp)
 202:	79e2                	ld	s3,56(sp)
 204:	7a42                	ld	s4,48(sp)
 206:	7aa2                	ld	s5,40(sp)
 208:	7b02                	ld	s6,32(sp)
 20a:	6be2                	ld	s7,24(sp)
 20c:	6125                	addi	sp,sp,96
 20e:	8082                	ret

0000000000000210 <stat>:

int
stat(const char *n, struct stat *st)
{
 210:	1101                	addi	sp,sp,-32
 212:	ec06                	sd	ra,24(sp)
 214:	e822                	sd	s0,16(sp)
 216:	e04a                	sd	s2,0(sp)
 218:	1000                	addi	s0,sp,32
 21a:	892e                	mv	s2,a1
  int fd;
  int r;

  fd = open(n, O_RDONLY);
 21c:	4581                	li	a1,0
 21e:	00000097          	auipc	ra,0x0
 222:	172080e7          	jalr	370(ra) # 390 <open>
  if(fd < 0)
 226:	02054663          	bltz	a0,252 <stat+0x42>
 22a:	e426                	sd	s1,8(sp)
 22c:	84aa                	mv	s1,a0
    return -1;
  r = fstat(fd, st);
 22e:	85ca                	mv	a1,s2
 230:	00000097          	auipc	ra,0x0
 234:	178080e7          	jalr	376(ra) # 3a8 <fstat>
 238:	892a                	mv	s2,a0
  close(fd);
 23a:	8526                	mv	a0,s1
 23c:	00000097          	auipc	ra,0x0
 240:	13c080e7          	jalr	316(ra) # 378 <close>
  return r;
 244:	64a2                	ld	s1,8(sp)
}
 246:	854a                	mv	a0,s2
 248:	60e2                	ld	ra,24(sp)
 24a:	6442                	ld	s0,16(sp)
 24c:	6902                	ld	s2,0(sp)
 24e:	6105                	addi	sp,sp,32
 250:	8082                	ret
    return -1;
 252:	597d                	li	s2,-1
 254:	bfcd                	j	246 <stat+0x36>

0000000000000256 <atoi>:

int
atoi(const char *s)
{
 256:	1141                	addi	sp,sp,-16
 258:	e422                	sd	s0,8(sp)
 25a:	0800                	addi	s0,sp,16
  int n;

  n = 0;
  while('0' <= *s && *s <= '9')
 25c:	00054683          	lbu	a3,0(a0)
 260:	fd06879b          	addiw	a5,a3,-48
 264:	0ff7f793          	zext.b	a5,a5
 268:	4625                	li	a2,9
 26a:	02f66863          	bltu	a2,a5,29a <atoi+0x44>
 26e:	872a                	mv	a4,a0
  n = 0;
 270:	4501                	li	a0,0
    n = n*10 + *s++ - '0';
 272:	0705                	addi	a4,a4,1
 274:	0025179b          	slliw	a5,a0,0x2
 278:	9fa9                	addw	a5,a5,a0
 27a:	0017979b          	slliw	a5,a5,0x1
 27e:	9fb5                	addw	a5,a5,a3
 280:	fd07851b          	addiw	a0,a5,-48
  while('0' <= *s && *s <= '9')
 284:	00074683          	lbu	a3,0(a4)
 288:	fd06879b          	addiw	a5,a3,-48
 28c:	0ff7f793          	zext.b	a5,a5
 290:	fef671e3          	bgeu	a2,a5,272 <atoi+0x1c>
  return n;
}
 294:	6422                	ld	s0,8(sp)
 296:	0141                	addi	sp,sp,16
 298:	8082                	ret
  n = 0;
 29a:	4501                	li	a0,0
 29c:	bfe5                	j	294 <atoi+0x3e>

000000000000029e <memmove>:

void*
memmove(void *vdst, const void *vsrc, int n)
{
 29e:	1141                	addi	sp,sp,-16
 2a0:	e422                	sd	s0,8(sp)
 2a2:	0800                	addi	s0,sp,16
  char *dst;
  const char *src;

  dst = vdst;
  src = vsrc;
  if (src > dst) {
 2a4:	02b57463          	bgeu	a0,a1,2cc <memmove+0x2e>
    while(n-- > 0)
 2a8:	00c05f63          	blez	a2,2c6 <memmove+0x28>
 2ac:	1602                	slli	a2,a2,0x20
 2ae:	9201                	srli	a2,a2,0x20
 2b0:	00c507b3          	add	a5,a0,a2
  dst = vdst;
 2b4:	872a                	mv	a4,a0
      *dst++ = *src++;
 2b6:	0585                	addi	a1,a1,1
 2b8:	0705                	addi	a4,a4,1
 2ba:	fff5c683          	lbu	a3,-1(a1)
 2be:	fed70fa3          	sb	a3,-1(a4)
    while(n-- > 0)
 2c2:	fef71ae3          	bne	a4,a5,2b6 <memmove+0x18>
    src += n;
    while(n-- > 0)
      *--dst = *--src;
  }
  return vdst;
}
 2c6:	6422                	ld	s0,8(sp)
 2c8:	0141                	addi	sp,sp,16
 2ca:	8082                	ret
    dst += n;
 2cc:	00c50733          	add	a4,a0,a2
    src += n;
 2d0:	95b2                	add	a1,a1,a2
    while(n-- > 0)
 2d2:	fec05ae3          	blez	a2,2c6 <memmove+0x28>
 2d6:	fff6079b          	addiw	a5,a2,-1
 2da:	1782                	slli	a5,a5,0x20
 2dc:	9381                	srli	a5,a5,0x20
 2de:	fff7c793          	not	a5,a5
 2e2:	97ba                	add	a5,a5,a4
      *--dst = *--src;
 2e4:	15fd                	addi	a1,a1,-1
 2e6:	177d                	addi	a4,a4,-1
 2e8:	0005c683          	lbu	a3,0(a1)
 2ec:	00d70023          	sb	a3,0(a4)
    while(n-- > 0)
 2f0:	fee79ae3          	bne	a5,a4,2e4 <memmove+0x46>
 2f4:	bfc9                	j	2c6 <memmove+0x28>

00000000000002f6 <memcmp>:

int
memcmp(const void *s1, const void *s2, uint n)
{
 2f6:	1141                	addi	sp,sp,-16
 2f8:	e422                	sd	s0,8(sp)
 2fa:	0800                	addi	s0,sp,16
  const char *p1 = s1, *p2 = s2;
  while (n-- > 0) {
 2fc:	ca05                	beqz	a2,32c <memcmp+0x36>
 2fe:	fff6069b          	addiw	a3,a2,-1
 302:	1682                	slli	a3,a3,0x20
 304:	9281                	srli	a3,a3,0x20
 306:	0685                	addi	a3,a3,1
 308:	96aa                	add	a3,a3,a0
    if (*p1 != *p2) {
 30a:	00054783          	lbu	a5,0(a0)
 30e:	0005c703          	lbu	a4,0(a1)
 312:	00e79863          	bne	a5,a4,322 <memcmp+0x2c>
      return *p1 - *p2;
    }
    p1++;
 316:	0505                	addi	a0,a0,1
    p2++;
 318:	0585                	addi	a1,a1,1
  while (n-- > 0) {
 31a:	fed518e3          	bne	a0,a3,30a <memcmp+0x14>
  }
  return 0;
 31e:	4501                	li	a0,0
 320:	a019                	j	326 <memcmp+0x30>
      return *p1 - *p2;
 322:	40e7853b          	subw	a0,a5,a4
}
 326:	6422                	ld	s0,8(sp)
 328:	0141                	addi	sp,sp,16
 32a:	8082                	ret
  return 0;
 32c:	4501                	li	a0,0
 32e:	bfe5                	j	326 <memcmp+0x30>

0000000000000330 <memcpy>:

void *
memcpy(void *dst, const void *src, uint n)
{
 330:	1141                	addi	sp,sp,-16
 332:	e406                	sd	ra,8(sp)
 334:	e022                	sd	s0,0(sp)
 336:	0800                	addi	s0,sp,16
  return memmove(dst, src, n);
 338:	00000097          	auipc	ra,0x0
 33c:	f66080e7          	jalr	-154(ra) # 29e <memmove>
}
 340:	60a2                	ld	ra,8(sp)
 342:	6402                	ld	s0,0(sp)
 344:	0141                	addi	sp,sp,16
 346:	8082                	ret

0000000000000348 <fork>:
# generated by usys.pl - do not edit
#include "kernel/syscall.h"
.global fork
fork:
 li a7, SYS_fork
 348:	4885                	li	a7,1
 ecall
 34a:	00000073          	ecall
 ret
 34e:	8082                	ret

0000000000000350 <exit>:
.global exit
exit:
 li a7, SYS_exit
 350:	4889                	li	a7,2
 ecall
 352:	00000073          	ecall
 ret
 356:	8082                	ret

0000000000000358 <wait>:
.global wait
wait:
 li a7, SYS_wait
 358:	488d                	li	a7,3
 ecall
 35a:	00000073          	ecall
 ret
 35e:	8082                	ret

0000000000000360 <pipe>:
.global pipe
pipe:
 li a7, SYS_pipe
 360:	4891                	li	a7,4
 ecall
 362:	00000073          	ecall
 ret
 366:	8082                	ret

0000000000000368 <read>:
.global read
read:
 li a7, SYS_read
 368:	4895                	li	a7,5
 ecall
 36a:	00000073          	ecall
 ret
 36e:	8082                	ret

0000000000000370 <write>:
.global write
write:
 li a7, SYS_write
 370:	48c1                	li	a7,16
 ecall
 372:	00000073          	ecall
 ret
 376:	8082                	ret

0000000000000378 <close>:
.global close
close:
 li a7, SYS_close
 378:	48d5                	li	a7,21
 ecall
 37a:	00000073          	ecall
 ret
 37e:	8082                	ret

0000000000000380 <kill>:
.global kill
kill:
 li a7, SYS_kill
 380:	4899                	li	a7,6
 ecall
 382:	00000073          	ecall
 ret
 386:	8082                	ret

0000000000000388 <exec>:
.global exec
exec:
 li a7, SYS_exec
 388:	489d                	li	a7,7
 ecall
 38a:	00000073          	ecall
 ret
 38e:	8082                	ret

0000000000000390 <open>:
.global open
open:
 li a7, SYS_open
 390:	48bd                	li	a7,15
 ecall
 392:	00000073          	ecall
 ret
 396:	8082                	ret

0000000000000398 <mknod>:
.global mknod
mknod:
 li a7, SYS_mknod
 398:	48c5                	li	a7,17
 ecall
 39a:	00000073          	ecall
 ret
 39e:	8082                	ret

00000000000003a0 <unlink>:
.global unlink
unlink:
 li a7, SYS_unlink
 3a0:	48c9                	li	a7,18
 ecall
 3a2:	00000073          	ecall
 ret
 3a6:	8082                	ret

00000000000003a8 <fstat>:
.global fstat
fstat:
 li a7, SYS_fstat
 3a8:	48a1                	li	a7,8
 ecall
 3aa:	00000073          	ecall
 ret
 3ae:	8082                	ret

00000000000003b0 <link>:
.global link
link:
 li a7, SYS_link
 3b0:	48cd                	li	a7,19
 ecall
 3b2:	00000073          	ecall
 ret
 3b6:	8082                	ret

00000000000003b8 <mkdir>:
.global mkdir
mkdir:
 li a7, SYS_mkdir
 3b8:	48d1                	li	a7,20
 ecall
 3ba:	00000073          	ecall
 ret
 3be:	8082                	ret

00000000000003c0 <chdir>:
.global chdir
chdir:
 li a7, SYS_chdir
 3c0:	48a5                	li	a7,9
 ecall
 3c2:	00000073          	ecall
 ret
 3c6:	8082                	ret

00000000000003c8 <dup>:
.global dup
dup:
 li a7, SYS_dup
 3c8:	48a9                	li	a7,10
 ecall
 3ca:	00000073          	ecall
 ret
 3ce:	8082                	ret

00000000000003d0 <getpid>:
.global getpid
getpid:
 li a7, SYS_getpid
 3d0:	48ad                	li	a7,11
 ecall
 3d2:	00000073          	ecall
 ret
 3d6:	8082                	ret

00000000000003d8 <sbrk>:
.global sbrk
sbrk:
 li a7, SYS_sbrk
 3d8:	48b1                	li	a7,12
 ecall
 3da:	00000073          	ecall
 ret
 3de:	8082                	ret

00000000000003e0 <sleep>:
.global sleep
sleep:
 li a7, SYS_sleep
 3e0:	48b5                	li	a7,13
 ecall
 3e2:	00000073          	ecall
 ret
 3e6:	8082                	ret

00000000000003e8 <uptime>:
.global uptime
uptime:
 li a7, SYS_uptime
 3e8:	48b9                	li	a7,14
 ecall
 3ea:	00000073          	ecall
 ret
 3ee:	8082                	ret

00000000000003f0 <waitx>:
.global waitx
waitx:
 li a7, SYS_waitx
 3f0:	48d9                	li	a7,22
 ecall
 3f2:	00000073          	ecall
 ret
 3f6:	8082                	ret

00000000000003f8 <getSysCount>:
.global getSysCount
getSysCount:
 li a7, SYS_getSysCount
 3f8:	48dd                	li	a7,23
 ecall
 3fa:	00000073          	ecall
 ret
 3fe:	8082                	ret

0000000000000400 <sigreturn>:
.global sigreturn
sigreturn:
 li a7, SYS_sigreturn
 400:	48e5                	li	a7,25
 ecall
 402:	00000073          	ecall
 ret
 406:	8082                	ret

0000000000000408 <sigalarm>:
.global sigalarm
sigalarm:
 li a7, SYS_sigalarm
 408:	48e1                	li	a7,24
 ecall
 40a:	00000073          	ecall
 ret
 40e:	8082                	ret

0000000000000410 <settickets>:
.global settickets
settickets:
 li a7, SYS_settickets
 410:	48e9                	li	a7,26
 ecall
 412:	00000073          	ecall
 ret
 416:	8082                	ret

0000000000000418 <printlog>:
.global printlog
printlog:
 li a7, SYS_printlog
 418:	48ed                	li	a7,27
 ecall
 41a:	00000073          	ecall
 ret
 41e:	8082                	ret

0000000000000420 <putc>:

static char digits[] = "0123456789ABCDEF";

static void
putc(int fd, char c)
{
 420:	1101                	addi	sp,sp,-32
 422:	ec06                	sd	ra,24(sp)
 424:	e822                	sd	s0,16(sp)
 426:	1000                	addi	s0,sp,32
 428:	feb407a3          	sb	a1,-17(s0)
  write(fd, &c, 1);
 42c:	4605                	li	a2,1
 42e:	fef40593          	addi	a1,s0,-17
 432:	00000097          	auipc	ra,0x0
 436:	f3e080e7          	jalr	-194(ra) # 370 <write>
}
 43a:	60e2                	ld	ra,24(sp)
 43c:	6442                	ld	s0,16(sp)
 43e:	6105                	addi	sp,sp,32
 440:	8082                	ret

0000000000000442 <printint>:

static void
printint(int fd, int xx, int base, int sgn)
{
 442:	7139                	addi	sp,sp,-64
 444:	fc06                	sd	ra,56(sp)
 446:	f822                	sd	s0,48(sp)
 448:	f426                	sd	s1,40(sp)
 44a:	0080                	addi	s0,sp,64
 44c:	84aa                	mv	s1,a0
  char buf[16];
  int i, neg;
  uint x;

  neg = 0;
  if(sgn && xx < 0){
 44e:	c299                	beqz	a3,454 <printint+0x12>
 450:	0805cb63          	bltz	a1,4e6 <printint+0xa4>
    neg = 1;
    x = -xx;
  } else {
    x = xx;
 454:	2581                	sext.w	a1,a1
  neg = 0;
 456:	4881                	li	a7,0
 458:	fc040693          	addi	a3,s0,-64
  }

  i = 0;
 45c:	4701                	li	a4,0
  do{
    buf[i++] = digits[x % base];
 45e:	2601                	sext.w	a2,a2
 460:	00000517          	auipc	a0,0x0
 464:	4e850513          	addi	a0,a0,1256 # 948 <digits>
 468:	883a                	mv	a6,a4
 46a:	2705                	addiw	a4,a4,1
 46c:	02c5f7bb          	remuw	a5,a1,a2
 470:	1782                	slli	a5,a5,0x20
 472:	9381                	srli	a5,a5,0x20
 474:	97aa                	add	a5,a5,a0
 476:	0007c783          	lbu	a5,0(a5)
 47a:	00f68023          	sb	a5,0(a3)
  }while((x /= base) != 0);
 47e:	0005879b          	sext.w	a5,a1
 482:	02c5d5bb          	divuw	a1,a1,a2
 486:	0685                	addi	a3,a3,1
 488:	fec7f0e3          	bgeu	a5,a2,468 <printint+0x26>
  if(neg)
 48c:	00088c63          	beqz	a7,4a4 <printint+0x62>
    buf[i++] = '-';
 490:	fd070793          	addi	a5,a4,-48
 494:	00878733          	add	a4,a5,s0
 498:	02d00793          	li	a5,45
 49c:	fef70823          	sb	a5,-16(a4)
 4a0:	0028071b          	addiw	a4,a6,2

  while(--i >= 0)
 4a4:	02e05c63          	blez	a4,4dc <printint+0x9a>
 4a8:	f04a                	sd	s2,32(sp)
 4aa:	ec4e                	sd	s3,24(sp)
 4ac:	fc040793          	addi	a5,s0,-64
 4b0:	00e78933          	add	s2,a5,a4
 4b4:	fff78993          	addi	s3,a5,-1
 4b8:	99ba                	add	s3,s3,a4
 4ba:	377d                	addiw	a4,a4,-1
 4bc:	1702                	slli	a4,a4,0x20
 4be:	9301                	srli	a4,a4,0x20
 4c0:	40e989b3          	sub	s3,s3,a4
    putc(fd, buf[i]);
 4c4:	fff94583          	lbu	a1,-1(s2)
 4c8:	8526                	mv	a0,s1
 4ca:	00000097          	auipc	ra,0x0
 4ce:	f56080e7          	jalr	-170(ra) # 420 <putc>
  while(--i >= 0)
 4d2:	197d                	addi	s2,s2,-1
 4d4:	ff3918e3          	bne	s2,s3,4c4 <printint+0x82>
 4d8:	7902                	ld	s2,32(sp)
 4da:	69e2                	ld	s3,24(sp)
}
 4dc:	70e2                	ld	ra,56(sp)
 4de:	7442                	ld	s0,48(sp)
 4e0:	74a2                	ld	s1,40(sp)
 4e2:	6121                	addi	sp,sp,64
 4e4:	8082                	ret
    x = -xx;
 4e6:	40b005bb          	negw	a1,a1
    neg = 1;
 4ea:	4885                	li	a7,1
    x = -xx;
 4ec:	b7b5                	j	458 <printint+0x16>

00000000000004ee <vprintf>:
}

// Print to the given fd. Only understands %d, %x, %p, %s.
void
vprintf(int fd, const char *fmt, va_list ap)
{
 4ee:	715d                	addi	sp,sp,-80
 4f0:	e486                	sd	ra,72(sp)
 4f2:	e0a2                	sd	s0,64(sp)
 4f4:	f84a                	sd	s2,48(sp)
 4f6:	0880                	addi	s0,sp,80
  char *s;
  int c, i, state;

  state = 0;
  for(i = 0; fmt[i]; i++){
 4f8:	0005c903          	lbu	s2,0(a1)
 4fc:	1a090a63          	beqz	s2,6b0 <vprintf+0x1c2>
 500:	fc26                	sd	s1,56(sp)
 502:	f44e                	sd	s3,40(sp)
 504:	f052                	sd	s4,32(sp)
 506:	ec56                	sd	s5,24(sp)
 508:	e85a                	sd	s6,16(sp)
 50a:	e45e                	sd	s7,8(sp)
 50c:	8aaa                	mv	s5,a0
 50e:	8bb2                	mv	s7,a2
 510:	00158493          	addi	s1,a1,1
  state = 0;
 514:	4981                	li	s3,0
      if(c == '%'){
        state = '%';
      } else {
        putc(fd, c);
      }
    } else if(state == '%'){
 516:	02500a13          	li	s4,37
 51a:	4b55                	li	s6,21
 51c:	a839                	j	53a <vprintf+0x4c>
        putc(fd, c);
 51e:	85ca                	mv	a1,s2
 520:	8556                	mv	a0,s5
 522:	00000097          	auipc	ra,0x0
 526:	efe080e7          	jalr	-258(ra) # 420 <putc>
 52a:	a019                	j	530 <vprintf+0x42>
    } else if(state == '%'){
 52c:	01498d63          	beq	s3,s4,546 <vprintf+0x58>
  for(i = 0; fmt[i]; i++){
 530:	0485                	addi	s1,s1,1
 532:	fff4c903          	lbu	s2,-1(s1)
 536:	16090763          	beqz	s2,6a4 <vprintf+0x1b6>
    if(state == 0){
 53a:	fe0999e3          	bnez	s3,52c <vprintf+0x3e>
      if(c == '%'){
 53e:	ff4910e3          	bne	s2,s4,51e <vprintf+0x30>
        state = '%';
 542:	89d2                	mv	s3,s4
 544:	b7f5                	j	530 <vprintf+0x42>
      if(c == 'd'){
 546:	13490463          	beq	s2,s4,66e <vprintf+0x180>
 54a:	f9d9079b          	addiw	a5,s2,-99
 54e:	0ff7f793          	zext.b	a5,a5
 552:	12fb6763          	bltu	s6,a5,680 <vprintf+0x192>
 556:	f9d9079b          	addiw	a5,s2,-99
 55a:	0ff7f713          	zext.b	a4,a5
 55e:	12eb6163          	bltu	s6,a4,680 <vprintf+0x192>
 562:	00271793          	slli	a5,a4,0x2
 566:	00000717          	auipc	a4,0x0
 56a:	38a70713          	addi	a4,a4,906 # 8f0 <malloc+0x150>
 56e:	97ba                	add	a5,a5,a4
 570:	439c                	lw	a5,0(a5)
 572:	97ba                	add	a5,a5,a4
 574:	8782                	jr	a5
        printint(fd, va_arg(ap, int), 10, 1);
 576:	008b8913          	addi	s2,s7,8
 57a:	4685                	li	a3,1
 57c:	4629                	li	a2,10
 57e:	000ba583          	lw	a1,0(s7)
 582:	8556                	mv	a0,s5
 584:	00000097          	auipc	ra,0x0
 588:	ebe080e7          	jalr	-322(ra) # 442 <printint>
 58c:	8bca                	mv	s7,s2
      } else {
        // Unknown % sequence.  Print it to draw attention.
        putc(fd, '%');
        putc(fd, c);
      }
      state = 0;
 58e:	4981                	li	s3,0
 590:	b745                	j	530 <vprintf+0x42>
        printint(fd, va_arg(ap, uint64), 10, 0);
 592:	008b8913          	addi	s2,s7,8
 596:	4681                	li	a3,0
 598:	4629                	li	a2,10
 59a:	000ba583          	lw	a1,0(s7)
 59e:	8556                	mv	a0,s5
 5a0:	00000097          	auipc	ra,0x0
 5a4:	ea2080e7          	jalr	-350(ra) # 442 <printint>
 5a8:	8bca                	mv	s7,s2
      state = 0;
 5aa:	4981                	li	s3,0
 5ac:	b751                	j	530 <vprintf+0x42>
        printint(fd, va_arg(ap, int), 16, 0);
 5ae:	008b8913          	addi	s2,s7,8
 5b2:	4681                	li	a3,0
 5b4:	4641                	li	a2,16
 5b6:	000ba583          	lw	a1,0(s7)
 5ba:	8556                	mv	a0,s5
 5bc:	00000097          	auipc	ra,0x0
 5c0:	e86080e7          	jalr	-378(ra) # 442 <printint>
 5c4:	8bca                	mv	s7,s2
      state = 0;
 5c6:	4981                	li	s3,0
 5c8:	b7a5                	j	530 <vprintf+0x42>
 5ca:	e062                	sd	s8,0(sp)
        printptr(fd, va_arg(ap, uint64));
 5cc:	008b8c13          	addi	s8,s7,8
 5d0:	000bb983          	ld	s3,0(s7)
  putc(fd, '0');
 5d4:	03000593          	li	a1,48
 5d8:	8556                	mv	a0,s5
 5da:	00000097          	auipc	ra,0x0
 5de:	e46080e7          	jalr	-442(ra) # 420 <putc>
  putc(fd, 'x');
 5e2:	07800593          	li	a1,120
 5e6:	8556                	mv	a0,s5
 5e8:	00000097          	auipc	ra,0x0
 5ec:	e38080e7          	jalr	-456(ra) # 420 <putc>
 5f0:	4941                	li	s2,16
    putc(fd, digits[x >> (sizeof(uint64) * 8 - 4)]);
 5f2:	00000b97          	auipc	s7,0x0
 5f6:	356b8b93          	addi	s7,s7,854 # 948 <digits>
 5fa:	03c9d793          	srli	a5,s3,0x3c
 5fe:	97de                	add	a5,a5,s7
 600:	0007c583          	lbu	a1,0(a5)
 604:	8556                	mv	a0,s5
 606:	00000097          	auipc	ra,0x0
 60a:	e1a080e7          	jalr	-486(ra) # 420 <putc>
  for (i = 0; i < (sizeof(uint64) * 2); i++, x <<= 4)
 60e:	0992                	slli	s3,s3,0x4
 610:	397d                	addiw	s2,s2,-1
 612:	fe0914e3          	bnez	s2,5fa <vprintf+0x10c>
        printptr(fd, va_arg(ap, uint64));
 616:	8be2                	mv	s7,s8
      state = 0;
 618:	4981                	li	s3,0
 61a:	6c02                	ld	s8,0(sp)
 61c:	bf11                	j	530 <vprintf+0x42>
        s = va_arg(ap, char*);
 61e:	008b8993          	addi	s3,s7,8
 622:	000bb903          	ld	s2,0(s7)
        if(s == 0)
 626:	02090163          	beqz	s2,648 <vprintf+0x15a>
        while(*s != 0){
 62a:	00094583          	lbu	a1,0(s2)
 62e:	c9a5                	beqz	a1,69e <vprintf+0x1b0>
          putc(fd, *s);
 630:	8556                	mv	a0,s5
 632:	00000097          	auipc	ra,0x0
 636:	dee080e7          	jalr	-530(ra) # 420 <putc>
          s++;
 63a:	0905                	addi	s2,s2,1
        while(*s != 0){
 63c:	00094583          	lbu	a1,0(s2)
 640:	f9e5                	bnez	a1,630 <vprintf+0x142>
        s = va_arg(ap, char*);
 642:	8bce                	mv	s7,s3
      state = 0;
 644:	4981                	li	s3,0
 646:	b5ed                	j	530 <vprintf+0x42>
          s = "(null)";
 648:	00000917          	auipc	s2,0x0
 64c:	2a090913          	addi	s2,s2,672 # 8e8 <malloc+0x148>
        while(*s != 0){
 650:	02800593          	li	a1,40
 654:	bff1                	j	630 <vprintf+0x142>
        putc(fd, va_arg(ap, uint));
 656:	008b8913          	addi	s2,s7,8
 65a:	000bc583          	lbu	a1,0(s7)
 65e:	8556                	mv	a0,s5
 660:	00000097          	auipc	ra,0x0
 664:	dc0080e7          	jalr	-576(ra) # 420 <putc>
 668:	8bca                	mv	s7,s2
      state = 0;
 66a:	4981                	li	s3,0
 66c:	b5d1                	j	530 <vprintf+0x42>
        putc(fd, c);
 66e:	02500593          	li	a1,37
 672:	8556                	mv	a0,s5
 674:	00000097          	auipc	ra,0x0
 678:	dac080e7          	jalr	-596(ra) # 420 <putc>
      state = 0;
 67c:	4981                	li	s3,0
 67e:	bd4d                	j	530 <vprintf+0x42>
        putc(fd, '%');
 680:	02500593          	li	a1,37
 684:	8556                	mv	a0,s5
 686:	00000097          	auipc	ra,0x0
 68a:	d9a080e7          	jalr	-614(ra) # 420 <putc>
        putc(fd, c);
 68e:	85ca                	mv	a1,s2
 690:	8556                	mv	a0,s5
 692:	00000097          	auipc	ra,0x0
 696:	d8e080e7          	jalr	-626(ra) # 420 <putc>
      state = 0;
 69a:	4981                	li	s3,0
 69c:	bd51                	j	530 <vprintf+0x42>
        s = va_arg(ap, char*);
 69e:	8bce                	mv	s7,s3
      state = 0;
 6a0:	4981                	li	s3,0
 6a2:	b579                	j	530 <vprintf+0x42>
 6a4:	74e2                	ld	s1,56(sp)
 6a6:	79a2                	ld	s3,40(sp)
 6a8:	7a02                	ld	s4,32(sp)
 6aa:	6ae2                	ld	s5,24(sp)
 6ac:	6b42                	ld	s6,16(sp)
 6ae:	6ba2                	ld	s7,8(sp)
    }
  }
}
 6b0:	60a6                	ld	ra,72(sp)
 6b2:	6406                	ld	s0,64(sp)
 6b4:	7942                	ld	s2,48(sp)
 6b6:	6161                	addi	sp,sp,80
 6b8:	8082                	ret

00000000000006ba <fprintf>:

void
fprintf(int fd, const char *fmt, ...)
{
 6ba:	715d                	addi	sp,sp,-80
 6bc:	ec06                	sd	ra,24(sp)
 6be:	e822                	sd	s0,16(sp)
 6c0:	1000                	addi	s0,sp,32
 6c2:	e010                	sd	a2,0(s0)
 6c4:	e414                	sd	a3,8(s0)
 6c6:	e818                	sd	a4,16(s0)
 6c8:	ec1c                	sd	a5,24(s0)
 6ca:	03043023          	sd	a6,32(s0)
 6ce:	03143423          	sd	a7,40(s0)
  va_list ap;

  va_start(ap, fmt);
 6d2:	fe843423          	sd	s0,-24(s0)
  vprintf(fd, fmt, ap);
 6d6:	8622                	mv	a2,s0
 6d8:	00000097          	auipc	ra,0x0
 6dc:	e16080e7          	jalr	-490(ra) # 4ee <vprintf>
}
 6e0:	60e2                	ld	ra,24(sp)
 6e2:	6442                	ld	s0,16(sp)
 6e4:	6161                	addi	sp,sp,80
 6e6:	8082                	ret

00000000000006e8 <printf>:

void
printf(const char *fmt, ...)
{
 6e8:	711d                	addi	sp,sp,-96
 6ea:	ec06                	sd	ra,24(sp)
 6ec:	e822                	sd	s0,16(sp)
 6ee:	1000                	addi	s0,sp,32
 6f0:	e40c                	sd	a1,8(s0)
 6f2:	e810                	sd	a2,16(s0)
 6f4:	ec14                	sd	a3,24(s0)
 6f6:	f018                	sd	a4,32(s0)
 6f8:	f41c                	sd	a5,40(s0)
 6fa:	03043823          	sd	a6,48(s0)
 6fe:	03143c23          	sd	a7,56(s0)
  va_list ap;

  va_start(ap, fmt);
 702:	00840613          	addi	a2,s0,8
 706:	fec43423          	sd	a2,-24(s0)
  vprintf(1, fmt, ap);
 70a:	85aa                	mv	a1,a0
 70c:	4505                	li	a0,1
 70e:	00000097          	auipc	ra,0x0
 712:	de0080e7          	jalr	-544(ra) # 4ee <vprintf>
}
 716:	60e2                	ld	ra,24(sp)
 718:	6442                	ld	s0,16(sp)
 71a:	6125                	addi	sp,sp,96
 71c:	8082                	ret

000000000000071e <free>:
static Header base;
static Header *freep;

void
free(void *ap)
{
 71e:	1141                	addi	sp,sp,-16
 720:	e422                	sd	s0,8(sp)
 722:	0800                	addi	s0,sp,16
  Header *bp, *p;

  bp = (Header*)ap - 1;
 724:	ff050693          	addi	a3,a0,-16
  for(p = freep; !(bp > p && bp < p->s.ptr); p = p->s.ptr)
 728:	00001797          	auipc	a5,0x1
 72c:	8d87b783          	ld	a5,-1832(a5) # 1000 <freep>
 730:	a02d                	j	75a <free+0x3c>
    if(p >= p->s.ptr && (bp > p || bp < p->s.ptr))
      break;
  if(bp + bp->s.size == p->s.ptr){
    bp->s.size += p->s.ptr->s.size;
 732:	4618                	lw	a4,8(a2)
 734:	9f2d                	addw	a4,a4,a1
 736:	fee52c23          	sw	a4,-8(a0)
    bp->s.ptr = p->s.ptr->s.ptr;
 73a:	6398                	ld	a4,0(a5)
 73c:	6310                	ld	a2,0(a4)
 73e:	a83d                	j	77c <free+0x5e>
  } else
    bp->s.ptr = p->s.ptr;
  if(p + p->s.size == bp){
    p->s.size += bp->s.size;
 740:	ff852703          	lw	a4,-8(a0)
 744:	9f31                	addw	a4,a4,a2
 746:	c798                	sw	a4,8(a5)
    p->s.ptr = bp->s.ptr;
 748:	ff053683          	ld	a3,-16(a0)
 74c:	a091                	j	790 <free+0x72>
    if(p >= p->s.ptr && (bp > p || bp < p->s.ptr))
 74e:	6398                	ld	a4,0(a5)
 750:	00e7e463          	bltu	a5,a4,758 <free+0x3a>
 754:	00e6ea63          	bltu	a3,a4,768 <free+0x4a>
{
 758:	87ba                	mv	a5,a4
  for(p = freep; !(bp > p && bp < p->s.ptr); p = p->s.ptr)
 75a:	fed7fae3          	bgeu	a5,a3,74e <free+0x30>
 75e:	6398                	ld	a4,0(a5)
 760:	00e6e463          	bltu	a3,a4,768 <free+0x4a>
    if(p >= p->s.ptr && (bp > p || bp < p->s.ptr))
 764:	fee7eae3          	bltu	a5,a4,758 <free+0x3a>
  if(bp + bp->s.size == p->s.ptr){
 768:	ff852583          	lw	a1,-8(a0)
 76c:	6390                	ld	a2,0(a5)
 76e:	02059813          	slli	a6,a1,0x20
 772:	01c85713          	srli	a4,a6,0x1c
 776:	9736                	add	a4,a4,a3
 778:	fae60de3          	beq	a2,a4,732 <free+0x14>
    bp->s.ptr = p->s.ptr->s.ptr;
 77c:	fec53823          	sd	a2,-16(a0)
  if(p + p->s.size == bp){
 780:	4790                	lw	a2,8(a5)
 782:	02061593          	slli	a1,a2,0x20
 786:	01c5d713          	srli	a4,a1,0x1c
 78a:	973e                	add	a4,a4,a5
 78c:	fae68ae3          	beq	a3,a4,740 <free+0x22>
    p->s.ptr = bp->s.ptr;
 790:	e394                	sd	a3,0(a5)
  } else
    p->s.ptr = bp;
  freep = p;
 792:	00001717          	auipc	a4,0x1
 796:	86f73723          	sd	a5,-1938(a4) # 1000 <freep>
}
 79a:	6422                	ld	s0,8(sp)
 79c:	0141                	addi	sp,sp,16
 79e:	8082                	ret

00000000000007a0 <malloc>:
  return freep;
}

void*
malloc(uint nbytes)
{
 7a0:	7139                	addi	sp,sp,-64
 7a2:	fc06                	sd	ra,56(sp)
 7a4:	f822                	sd	s0,48(sp)
 7a6:	f426                	sd	s1,40(sp)
 7a8:	ec4e                	sd	s3,24(sp)
 7aa:	0080                	addi	s0,sp,64
  Header *p, *prevp;
  uint nunits;

  nunits = (nbytes + sizeof(Header) - 1)/sizeof(Header) + 1;
 7ac:	02051493          	slli	s1,a0,0x20
 7b0:	9081                	srli	s1,s1,0x20
 7b2:	04bd                	addi	s1,s1,15
 7b4:	8091                	srli	s1,s1,0x4
 7b6:	0014899b          	addiw	s3,s1,1
 7ba:	0485                	addi	s1,s1,1
  if((prevp = freep) == 0){
 7bc:	00001517          	auipc	a0,0x1
 7c0:	84453503          	ld	a0,-1980(a0) # 1000 <freep>
 7c4:	c915                	beqz	a0,7f8 <malloc+0x58>
    base.s.ptr = freep = prevp = &base;
    base.s.size = 0;
  }
  for(p = prevp->s.ptr; ; prevp = p, p = p->s.ptr){
 7c6:	611c                	ld	a5,0(a0)
    if(p->s.size >= nunits){
 7c8:	4798                	lw	a4,8(a5)
 7ca:	08977e63          	bgeu	a4,s1,866 <malloc+0xc6>
 7ce:	f04a                	sd	s2,32(sp)
 7d0:	e852                	sd	s4,16(sp)
 7d2:	e456                	sd	s5,8(sp)
 7d4:	e05a                	sd	s6,0(sp)
  if(nu < 4096)
 7d6:	8a4e                	mv	s4,s3
 7d8:	0009871b          	sext.w	a4,s3
 7dc:	6685                	lui	a3,0x1
 7de:	00d77363          	bgeu	a4,a3,7e4 <malloc+0x44>
 7e2:	6a05                	lui	s4,0x1
 7e4:	000a0b1b          	sext.w	s6,s4
  p = sbrk(nu * sizeof(Header));
 7e8:	004a1a1b          	slliw	s4,s4,0x4
        p->s.size = nunits;
      }
      freep = prevp;
      return (void*)(p + 1);
    }
    if(p == freep)
 7ec:	00001917          	auipc	s2,0x1
 7f0:	81490913          	addi	s2,s2,-2028 # 1000 <freep>
  if(p == (char*)-1)
 7f4:	5afd                	li	s5,-1
 7f6:	a091                	j	83a <malloc+0x9a>
 7f8:	f04a                	sd	s2,32(sp)
 7fa:	e852                	sd	s4,16(sp)
 7fc:	e456                	sd	s5,8(sp)
 7fe:	e05a                	sd	s6,0(sp)
    base.s.ptr = freep = prevp = &base;
 800:	00001797          	auipc	a5,0x1
 804:	81078793          	addi	a5,a5,-2032 # 1010 <base>
 808:	00000717          	auipc	a4,0x0
 80c:	7ef73c23          	sd	a5,2040(a4) # 1000 <freep>
 810:	e39c                	sd	a5,0(a5)
    base.s.size = 0;
 812:	0007a423          	sw	zero,8(a5)
    if(p->s.size >= nunits){
 816:	b7c1                	j	7d6 <malloc+0x36>
        prevp->s.ptr = p->s.ptr;
 818:	6398                	ld	a4,0(a5)
 81a:	e118                	sd	a4,0(a0)
 81c:	a08d                	j	87e <malloc+0xde>
  hp->s.size = nu;
 81e:	01652423          	sw	s6,8(a0)
  free((void*)(hp + 1));
 822:	0541                	addi	a0,a0,16
 824:	00000097          	auipc	ra,0x0
 828:	efa080e7          	jalr	-262(ra) # 71e <free>
  return freep;
 82c:	00093503          	ld	a0,0(s2)
      if((p = morecore(nunits)) == 0)
 830:	c13d                	beqz	a0,896 <malloc+0xf6>
  for(p = prevp->s.ptr; ; prevp = p, p = p->s.ptr){
 832:	611c                	ld	a5,0(a0)
    if(p->s.size >= nunits){
 834:	4798                	lw	a4,8(a5)
 836:	02977463          	bgeu	a4,s1,85e <malloc+0xbe>
    if(p == freep)
 83a:	00093703          	ld	a4,0(s2)
 83e:	853e                	mv	a0,a5
 840:	fef719e3          	bne	a4,a5,832 <malloc+0x92>
  p = sbrk(nu * sizeof(Header));
 844:	8552                	mv	a0,s4
 846:	00000097          	auipc	ra,0x0
 84a:	b92080e7          	jalr	-1134(ra) # 3d8 <sbrk>
  if(p == (char*)-1)
 84e:	fd5518e3          	bne	a0,s5,81e <malloc+0x7e>
        return 0;
 852:	4501                	li	a0,0
 854:	7902                	ld	s2,32(sp)
 856:	6a42                	ld	s4,16(sp)
 858:	6aa2                	ld	s5,8(sp)
 85a:	6b02                	ld	s6,0(sp)
 85c:	a03d                	j	88a <malloc+0xea>
 85e:	7902                	ld	s2,32(sp)
 860:	6a42                	ld	s4,16(sp)
 862:	6aa2                	ld	s5,8(sp)
 864:	6b02                	ld	s6,0(sp)
      if(p->s.size == nunits)
 866:	fae489e3          	beq	s1,a4,818 <malloc+0x78>
        p->s.size -= nunits;
 86a:	4137073b          	subw	a4,a4,s3
 86e:	c798                	sw	a4,8(a5)
        p += p->s.size;
 870:	02071693          	slli	a3,a4,0x20
 874:	01c6d713          	srli	a4,a3,0x1c
 878:	97ba                	add	a5,a5,a4
        p->s.size = nunits;
 87a:	0137a423          	sw	s3,8(a5)
      freep = prevp;
 87e:	00000717          	auipc	a4,0x0
 882:	78a73123          	sd	a0,1922(a4) # 1000 <freep>
      return (void*)(p + 1);
 886:	01078513          	addi	a0,a5,16
  }
}
 88a:	70e2                	ld	ra,56(sp)
 88c:	7442                	ld	s0,48(sp)
 88e:	74a2                	ld	s1,40(sp)
 890:	69e2                	ld	s3,24(sp)
 892:	6121                	addi	sp,sp,64
 894:	8082                	ret
 896:	7902                	ld	s2,32(sp)
 898:	6a42                	ld	s4,16(sp)
 89a:	6aa2                	ld	s5,8(sp)
 89c:	6b02                	ld	s6,0(sp)
 89e:	b7f5                	j	88a <malloc+0xea>
